target datalayout = "e-m:e-p270:32:32-p271:32:32-p272:64:64-i64:64-i128:128-f80:128-n8:16:32:64-S128"
target triple = "x86_64-pc-linux-gnu"

%struct.IDAMemRec = type { ptr, double, ptr, ptr, i32, double, double, ptr, i32, i32, ptr, ptr, i32, i32, [6 x ptr], [6 x double], [6 x double], [6 x double], [6 x double], [6 x double], ptr, ptr, ptr, ptr, ptr, ptr, ptr, ptr, ptr, ptr, ptr, ptr, ptr, ptr, ptr, ptr, ptr, double, ptr, ptr, i32, i32, i32, i32, i32, i32, i32, i32, double, double, double, i32, double, i32, i32, i32, i32, i32, double, double, double, double, double, double, double, double, double, double, double, double, double, double, double, double, i32, i32, i32, i32, i64, double, double, double, double, double, double, double, double, double, i64, i64, i64, i64, i64, i64, i64, i64, i64, i64, i64, double, i32, i32, i32, i32, i32, ptr, i32, ptr, ptr, ptr, ptr, ptr, ptr, ptr, double, i32, ptr, i32, ptr, ptr, double, double, double, ptr, ptr, ptr, double, double, i32, i32, i64, ptr, i32, [6 x double], [5 x double], [6 x ptr], [6 x ptr] }

; Function Attrs: nounwind uwtable
define internal i32 @IDARcheck1(ptr noundef %0) #0 {
  %2 = alloca i32, align 4
  %3 = alloca ptr, align 8
  %4 = alloca i32, align 4
  %5 = alloca i32, align 4
  %6 = alloca double, align 8
  %7 = alloca double, align 8
  %8 = alloca double, align 8
  %9 = alloca i32, align 4
  %10 = alloca i32, align 4
  store ptr %0, ptr %3, align 8, !tbaa !8
  call void @llvm.lifetime.start.p0(i64 4, ptr %4) #10
  call void @llvm.lifetime.start.p0(i64 4, ptr %5) #10
  call void @llvm.lifetime.start.p0(i64 8, ptr %6) #10
  call void @llvm.lifetime.start.p0(i64 8, ptr %7) #10
  call void @llvm.lifetime.start.p0(i64 8, ptr %8) #10
  call void @llvm.lifetime.start.p0(i64 4, ptr %9) #10
  store i32 0, ptr %4, align 4, !tbaa !64
  br label %11

11:                                               ; preds = %24, %1
  %12 = load i32, ptr %4, align 4, !tbaa !64
  %13 = load ptr, ptr %3, align 8, !tbaa !8
  %14 = getelementptr inbounds nuw %struct.IDAMemRec, ptr %13, i32 0, i32 117
  %15 = load i32, ptr %14, align 8, !tbaa !110
  %16 = icmp slt i32 %12, %15
  br i1 %16, label %17, label %27

17:                                               ; preds = %11
  %18 = load ptr, ptr %3, align 8, !tbaa !8
  %19 = getelementptr inbounds nuw %struct.IDAMemRec, ptr %18, i32 0, i32 118
  %20 = load ptr, ptr %19, align 8, !tbaa !107
  %21 = load i32, ptr %4, align 4, !tbaa !64
  %22 = sext i32 %21 to i64
  %23 = getelementptr inbounds i32, ptr %20, i64 %22
  store i32 0, ptr %23, align 4, !tbaa !64
  br label %24

24:                                               ; preds = %17
  %25 = load i32, ptr %4, align 4, !tbaa !64
  %26 = add nsw i32 %25, 1
  store i32 %26, ptr %4, align 4, !tbaa !64
  br label %11

27:                                               ; preds = %11
  %28 = load ptr, ptr %3, align 8, !tbaa !8
  %29 = getelementptr inbounds nuw %struct.IDAMemRec, ptr %28, i32 0, i32 63
  %30 = load double, ptr %29, align 8, !tbaa !83
  %31 = load ptr, ptr %3, align 8, !tbaa !8
  %32 = getelementptr inbounds nuw %struct.IDAMemRec, ptr %31, i32 0, i32 120
  store double %30, ptr %32, align 8, !tbaa !148
  %33 = load ptr, ptr %3, align 8, !tbaa !8
  %34 = getelementptr inbounds nuw %struct.IDAMemRec, ptr %33, i32 0, i32 63
  %35 = load double, ptr %34, align 8, !tbaa !83
  %36 = call double @llvm.fabs.f64(double %35)
  %37 = load ptr, ptr %3, align 8, !tbaa !8
  %38 = getelementptr inbounds nuw %struct.IDAMemRec, ptr %37, i32 0, i32 60
  %39 = load double, ptr %38, align 8, !tbaa !142
  %40 = call double @llvm.fabs.f64(double %39)
  %41 = fadd double %36, %40
  %42 = load ptr, ptr %3, align 8, !tbaa !8
  %43 = getelementptr inbounds nuw %struct.IDAMemRec, ptr %42, i32 0, i32 1
  %44 = load double, ptr %43, align 8, !tbaa !19
  %45 = fmul double %41, %44
  %46 = fmul double %45, 1.000000e+02
  %47 = load ptr, ptr %3, align 8, !tbaa !8
  %48 = getelementptr inbounds nuw %struct.IDAMemRec, ptr %47, i32 0, i32 127
  store double %46, ptr %48, align 8, !tbaa !151
  %49 = load ptr, ptr %3, align 8, !tbaa !8
  %50 = getelementptr inbounds nuw %struct.IDAMemRec, ptr %49, i32 0, i32 116
  %51 = load ptr, ptr %50, align 8, !tbaa !109
  %52 = load ptr, ptr %3, align 8, !tbaa !8
  %53 = getelementptr inbounds nuw %struct.IDAMemRec, ptr %52, i32 0, i32 120
  %54 = load double, ptr %53, align 8, !tbaa !148
  %55 = load ptr, ptr %3, align 8, !tbaa !8
  %56 = getelementptr inbounds nuw %struct.IDAMemRec, ptr %55, i32 0, i32 14
  %57 = getelementptr inbounds [6 x ptr], ptr %56, i64 0, i64 0
  %58 = load ptr, ptr %57, align 8, !tbaa !75
  %59 = load ptr, ptr %3, align 8, !tbaa !8
  %60 = getelementptr inbounds nuw %struct.IDAMemRec, ptr %59, i32 0, i32 14
  %61 = getelementptr inbounds [6 x ptr], ptr %60, i64 0, i64 1
  %62 = load ptr, ptr %61, align 8, !tbaa !75
  %63 = load ptr, ptr %3, align 8, !tbaa !8
  %64 = getelementptr inbounds nuw %struct.IDAMemRec, ptr %63, i32 0, i32 123
  %65 = load ptr, ptr %64, align 8, !tbaa !104
  %66 = load ptr, ptr %3, align 8, !tbaa !8
  %67 = getelementptr inbounds nuw %struct.IDAMemRec, ptr %66, i32 0, i32 3
  %68 = load ptr, ptr %67, align 8, !tbaa !21
  %69 = call i32 %51(double noundef %54, ptr noundef %58, ptr noundef %62, ptr noundef %65, ptr noundef %68)
  store i32 %69, ptr %5, align 4, !tbaa !64
  %70 = load ptr, ptr %3, align 8, !tbaa !8
  %71 = getelementptr inbounds nuw %struct.IDAMemRec, ptr %70, i32 0, i32 130
  store i64 1, ptr %71, align 8, !tbaa !101
  %72 = load i32, ptr %5, align 4, !tbaa !64
  %73 = icmp ne i32 %72, 0
  br i1 %73, label %74, label %75

74:                                               ; preds = %27
  store i32 -10, ptr %2, align 4
  store i32 1, ptr %10, align 4
  br label %227

75:                                               ; preds = %27
  store i32 0, ptr %9, align 4, !tbaa !64
  store i32 0, ptr %4, align 4, !tbaa !64
  br label %76

76:                                               ; preds = %100, %75
  %77 = load i32, ptr %4, align 4, !tbaa !64
  %78 = load ptr, ptr %3, align 8, !tbaa !8
  %79 = getelementptr inbounds nuw %struct.IDAMemRec, ptr %78, i32 0, i32 117
  %80 = load i32, ptr %79, align 8, !tbaa !110
  %81 = icmp slt i32 %77, %80
  br i1 %81, label %82, label %103

82:                                               ; preds = %76
  %83 = load ptr, ptr %3, align 8, !tbaa !8
  %84 = getelementptr inbounds nuw %struct.IDAMemRec, ptr %83, i32 0, i32 123
  %85 = load ptr, ptr %84, align 8, !tbaa !104
  %86 = load i32, ptr %4, align 4, !tbaa !64
  %87 = sext i32 %86 to i64
  %88 = getelementptr inbounds double, ptr %85, i64 %87
  %89 = load double, ptr %88, align 8, !tbaa !74
  %90 = call double @llvm.fabs.f64(double %89)
  %91 = fcmp oeq double %90, 0.000000e+00
  br i1 %91, label %92, label %99

92:                                               ; preds = %82
  store i32 1, ptr %9, align 4, !tbaa !64
  %93 = load ptr, ptr %3, align 8, !tbaa !8
  %94 = getelementptr inbounds nuw %struct.IDAMemRec, ptr %93, i32 0, i32 131
  %95 = load ptr, ptr %94, align 8, !tbaa !111
  %96 = load i32, ptr %4, align 4, !tbaa !64
  %97 = sext i32 %96 to i64
  %98 = getelementptr inbounds i32, ptr %95, i64 %97
  store i32 0, ptr %98, align 4, !tbaa !64
  br label %99

99:                                               ; preds = %92, %82
  br label %100

100:                                              ; preds = %99
  %101 = load i32, ptr %4, align 4, !tbaa !64
  %102 = add nsw i32 %101, 1
  store i32 %102, ptr %4, align 4, !tbaa !64
  br label %76

103:                                              ; preds = %76
  %104 = load i32, ptr %9, align 4, !tbaa !64
  %105 = icmp ne i32 %104, 0
  br i1 %105, label %107, label %106

106:                                              ; preds = %103
  store i32 0, ptr %2, align 4
  store i32 1, ptr %10, align 4
  br label %227

107:                                              ; preds = %103
  %108 = load ptr, ptr %3, align 8, !tbaa !8
  %109 = getelementptr inbounds nuw %struct.IDAMemRec, ptr %108, i32 0, i32 127
  %110 = load double, ptr %109, align 8, !tbaa !151
  %111 = load ptr, ptr %3, align 8, !tbaa !8
  %112 = getelementptr inbounds nuw %struct.IDAMemRec, ptr %111, i32 0, i32 60
  %113 = load double, ptr %112, align 8, !tbaa !142
  %114 = call double @llvm.fabs.f64(double %113)
  %115 = fdiv double %110, %114
  %116 = fcmp ogt double %115, 1.000000e-01
  br i1 %116, label %117, label %126

117:                                              ; preds = %107
  %118 = load ptr, ptr %3, align 8, !tbaa !8
  %119 = getelementptr inbounds nuw %struct.IDAMemRec, ptr %118, i32 0, i32 127
  %120 = load double, ptr %119, align 8, !tbaa !151
  %121 = load ptr, ptr %3, align 8, !tbaa !8
  %122 = getelementptr inbounds nuw %struct.IDAMemRec, ptr %121, i32 0, i32 60
  %123 = load double, ptr %122, align 8, !tbaa !142
  %124 = call double @llvm.fabs.f64(double %123)
  %125 = fdiv double %120, %124
  br label %127

126:                                              ; preds = %107
  br label %127

127:                                              ; preds = %126, %117
  %128 = phi double [ %125, %117 ], [ 1.000000e-01, %126 ]
  store double %128, ptr %7, align 8, !tbaa !74
  %129 = load double, ptr %7, align 8, !tbaa !74
  %130 = load ptr, ptr %3, align 8, !tbaa !8
  %131 = getelementptr inbounds nuw %struct.IDAMemRec, ptr %130, i32 0, i32 60
  %132 = load double, ptr %131, align 8, !tbaa !142
  %133 = fmul double %129, %132
  store double %133, ptr %6, align 8, !tbaa !74
  %134 = load ptr, ptr %3, align 8, !tbaa !8
  %135 = getelementptr inbounds nuw %struct.IDAMemRec, ptr %134, i32 0, i32 120
  %136 = load double, ptr %135, align 8, !tbaa !148
  %137 = load double, ptr %6, align 8, !tbaa !74
  %138 = fadd double %136, %137
  store double %138, ptr %8, align 8, !tbaa !74
  %139 = load ptr, ptr %3, align 8, !tbaa !8
  %140 = getelementptr inbounds nuw %struct.IDAMemRec, ptr %139, i32 0, i32 14
  %141 = getelementptr inbounds [6 x ptr], ptr %140, i64 0, i64 0
  %142 = load ptr, ptr %141, align 8, !tbaa !75
  %143 = load double, ptr %6, align 8, !tbaa !74
  %144 = load ptr, ptr %3, align 8, !tbaa !8
  %145 = getelementptr inbounds nuw %struct.IDAMemRec, ptr %144, i32 0, i32 14
  %146 = getelementptr inbounds [6 x ptr], ptr %145, i64 0, i64 1
  %147 = load ptr, ptr %146, align 8, !tbaa !75
  %148 = load ptr, ptr %3, align 8, !tbaa !8
  %149 = getelementptr inbounds nuw %struct.IDAMemRec, ptr %148, i32 0, i32 21
  %150 = load ptr, ptr %149, align 8, !tbaa !138
  call void @N_VLinearSum(double noundef 1.000000e+00, ptr noundef %142, double noundef %143, ptr noundef %147, ptr noundef %150)
  %151 = load ptr, ptr %3, align 8, !tbaa !8
  %152 = getelementptr inbounds nuw %struct.IDAMemRec, ptr %151, i32 0, i32 116
  %153 = load ptr, ptr %152, align 8, !tbaa !109
  %154 = load double, ptr %8, align 8, !tbaa !74
  %155 = load ptr, ptr %3, align 8, !tbaa !8
  %156 = getelementptr inbounds nuw %struct.IDAMemRec, ptr %155, i32 0, i32 21
  %157 = load ptr, ptr %156, align 8, !tbaa !138
  %158 = load ptr, ptr %3, align 8, !tbaa !8
  %159 = getelementptr inbounds nuw %struct.IDAMemRec, ptr %158, i32 0, i32 14
  %160 = getelementptr inbounds [6 x ptr], ptr %159, i64 0, i64 1
  %161 = load ptr, ptr %160, align 8, !tbaa !75
  %162 = load ptr, ptr %3, align 8, !tbaa !8
  %163 = getelementptr inbounds nuw %struct.IDAMemRec, ptr %162, i32 0, i32 124
  %164 = load ptr, ptr %163, align 8, !tbaa !105
  %165 = load ptr, ptr %3, align 8, !tbaa !8
  %166 = getelementptr inbounds nuw %struct.IDAMemRec, ptr %165, i32 0, i32 3
  %167 = load ptr, ptr %166, align 8, !tbaa !21
  %168 = call i32 %153(double noundef %154, ptr noundef %157, ptr noundef %161, ptr noundef %164, ptr noundef %167)
  store i32 %168, ptr %5, align 4, !tbaa !64
  %169 = load ptr, ptr %3, align 8, !tbaa !8
  %170 = getelementptr inbounds nuw %struct.IDAMemRec, ptr %169, i32 0, i32 130
  %171 = load i64, ptr %170, align 8, !tbaa !101
  %172 = add nsw i64 %171, 1
  store i64 %172, ptr %170, align 8, !tbaa !101
  %173 = load i32, ptr %5, align 4, !tbaa !64
  %174 = icmp ne i32 %173, 0
  br i1 %174, label %175, label %176

175:                                              ; preds = %127
  store i32 -10, ptr %2, align 4
  store i32 1, ptr %10, align 4
  br label %227

176:                                              ; preds = %127
  store i32 0, ptr %4, align 4, !tbaa !64
  br label %177

177:                                              ; preds = %223, %176
  %178 = load i32, ptr %4, align 4, !tbaa !64
  %179 = load ptr, ptr %3, align 8, !tbaa !8
  %180 = getelementptr inbounds nuw %struct.IDAMemRec, ptr %179, i32 0, i32 117
  %181 = load i32, ptr %180, align 8, !tbaa !110
  %182 = icmp slt i32 %178, %181
  br i1 %182, label %183, label %226

183:                                              ; preds = %177
  %184 = load ptr, ptr %3, align 8, !tbaa !8
  %185 = getelementptr inbounds nuw %struct.IDAMemRec, ptr %184, i32 0, i32 131
  %186 = load ptr, ptr %185, align 8, !tbaa !111
  %187 = load i32, ptr %4, align 4, !tbaa !64
  %188 = sext i32 %187 to i64
  %189 = getelementptr inbounds i32, ptr %186, i64 %188
  %190 = load i32, ptr %189, align 4, !tbaa !64
  %191 = icmp ne i32 %190, 0
  br i1 %191, label %222, label %192

192:                                              ; preds = %183
  %193 = load ptr, ptr %3, align 8, !tbaa !8
  %194 = getelementptr inbounds nuw %struct.IDAMemRec, ptr %193, i32 0, i32 124
  %195 = load ptr, ptr %194, align 8, !tbaa !105
  %196 = load i32, ptr %4, align 4, !tbaa !64
  %197 = sext i32 %196 to i64
  %198 = getelementptr inbounds double, ptr %195, i64 %197
  %199 = load double, ptr %198, align 8, !tbaa !74
  %200 = call double @llvm.fabs.f64(double %199)
  %201 = fcmp une double %200, 0.000000e+00
  br i1 %201, label %202, label %222

202:                                              ; preds = %192
  %203 = load ptr, ptr %3, align 8, !tbaa !8
  %204 = getelementptr inbounds nuw %struct.IDAMemRec, ptr %203, i32 0, i32 131
  %205 = load ptr, ptr %204, align 8, !tbaa !111
  %206 = load i32, ptr %4, align 4, !tbaa !64
  %207 = sext i32 %206 to i64
  %208 = getelementptr inbounds i32, ptr %205, i64 %207
  store i32 1, ptr %208, align 4, !tbaa !64
  %209 = load ptr, ptr %3, align 8, !tbaa !8
  %210 = getelementptr inbounds nuw %struct.IDAMemRec, ptr %209, i32 0, i32 124
  %211 = load ptr, ptr %210, align 8, !tbaa !105
  %212 = load i32, ptr %4, align 4, !tbaa !64
  %213 = sext i32 %212 to i64
  %214 = getelementptr inbounds double, ptr %211, i64 %213
  %215 = load double, ptr %214, align 8, !tbaa !74
  %216 = load ptr, ptr %3, align 8, !tbaa !8
  %217 = getelementptr inbounds nuw %struct.IDAMemRec, ptr %216, i32 0, i32 123
  %218 = load ptr, ptr %217, align 8, !tbaa !104
  %219 = load i32, ptr %4, align 4, !tbaa !64
  %220 = sext i32 %219 to i64
  %221 = getelementptr inbounds double, ptr %218, i64 %220
  store double %215, ptr %221, align 8, !tbaa !74
  br label %222

222:                                              ; preds = %202, %192, %183
  br label %223

223:                                              ; preds = %222
  %224 = load i32, ptr %4, align 4, !tbaa !64
  %225 = add nsw i32 %224, 1
  store i32 %225, ptr %4, align 4, !tbaa !64
  br label %177

226:                                              ; preds = %177
  store i32 0, ptr %2, align 4
  store i32 1, ptr %10, align 4
  br label %227

227:                                              ; preds = %226, %175, %106, %74
  call void @llvm.lifetime.end.p0(i64 4, ptr %9) #10
  call void @llvm.lifetime.end.p0(i64 8, ptr %8) #10
  call void @llvm.lifetime.end.p0(i64 8, ptr %7) #10
  call void @llvm.lifetime.end.p0(i64 8, ptr %6) #10
  call void @llvm.lifetime.end.p0(i64 4, ptr %5) #10
  call void @llvm.lifetime.end.p0(i64 4, ptr %4) #10
  %228 = load i32, ptr %2, align 4
  ret i32 %228
}