; Function Attrs: nounwind uwtable
define internal fastcc range(i32 -10, 1) i32 @IDARcheck1(ptr noundef nonnull captures(none) %0) unnamed_addr #0 {
  %2 = getelementptr inbounds nuw i8, ptr %0, i64 1080
  %3 = load i32, ptr %2, align 8, !tbaa !87
  %4 = icmp sgt i32 %3, 0
  br i1 %4, label %.lr.ph, label %._crit_edge

.lr.ph:                                           ; preds = %1
  %5 = getelementptr inbounds nuw i8, ptr %0, i64 1088
  %6 = load ptr, ptr %5, align 8, !tbaa !108
  br label %7

7:                                                ; preds = %.lr.ph, %7
  %indvars.iv = phi i64 [ 0, %.lr.ph ], [ %indvars.iv.next, %7 ]
  %8 = getelementptr inbounds nuw i32, ptr %6, i64 %indvars.iv
  store i32 0, ptr %8, align 4, !tbaa !111
  %indvars.iv.next = add nuw nsw i64 %indvars.iv, 1
  %9 = load i32, ptr %2, align 8, !tbaa !87
  %10 = sext i32 %9 to i64
  %11 = icmp slt i64 %indvars.iv.next, %10
  br i1 %11, label %7, label %._crit_edge

._crit_edge:                                      ; preds = %7, %1
  %12 = getelementptr inbounds nuw i8, ptr %0, i64 680
  %13 = load double, ptr %12, align 8, !tbaa !80
  %14 = getelementptr inbounds nuw i8, ptr %0, i64 1104
  store double %13, ptr %14, align 8, !tbaa !129
  %15 = tail call double @llvm.fabs.f64(double %13)
  %16 = getelementptr inbounds nuw i8, ptr %0, i64 656
  %17 = load double, ptr %16, align 8, !tbaa !118
  %18 = tail call double @llvm.fabs.f64(double %17)
  %19 = fadd double %15, %18
  %20 = getelementptr inbounds nuw i8, ptr %0, i64 8
  %21 = load double, ptr %20, align 8, !tbaa !16
  %22 = fmul double %21, %19
  %23 = fmul double %22, 1.000000e+02
  %24 = getelementptr inbounds nuw i8, ptr %0, i64 1160
  store double %23, ptr %24, align 8, !tbaa !154
  %25 = getelementptr inbounds nuw i8, ptr %0, i64 1072
  %26 = load ptr, ptr %25, align 8, !tbaa !86
  %27 = getelementptr inbounds nuw i8, ptr %0, i64 96
  %28 = load ptr, ptr %27, align 8, !tbaa !78
  %29 = getelementptr inbounds nuw i8, ptr %0, i64 104
  %30 = load ptr, ptr %29, align 8, !tbaa !78
  %31 = getelementptr inbounds nuw i8, ptr %0, i64 1128
  %32 = load ptr, ptr %31, align 8, !tbaa !105
  %33 = getelementptr inbounds nuw i8, ptr %0, i64 24
  %34 = load ptr, ptr %33, align 8, !tbaa !152
  %35 = tail call i32 %26(double noundef %13, ptr noundef %28, ptr noundef %30, ptr noundef %32, ptr noundef %34) #13
  %36 = getelementptr inbounds nuw i8, ptr %0, i64 1176
  store i64 1, ptr %36, align 8, !tbaa !97
  %.not = icmp eq i32 %35, 0
  br i1 %.not, label %.preheader67, label %.loopexit

.preheader67:                                     ; preds = %._crit_edge
  %37 = load i32, ptr %2, align 8, !tbaa !87
  %38 = icmp sgt i32 %37, 0
  br i1 %38, label %.lr.ph71, label %.loopexit

.lr.ph71:                                         ; preds = %.preheader67
  %39 = load ptr, ptr %31, align 8, !tbaa !105
  %40 = getelementptr inbounds nuw i8, ptr %0, i64 1184
  br label %.outer

.outer:                                           ; preds = %.thread, %.lr.ph71
  %.ph = phi i32 [ %.pre, %.thread ], [ %37, %.lr.ph71 ]
  %indvars.iv76.ph = phi i64 [ %indvars.iv.next7785, %.thread ], [ 0, %.lr.ph71 ]
  %41 = phi i1 [ false, %.thread ], [ true, %.lr.ph71 ]
  %42 = sext i32 %.ph to i64
  br label %43

43:                                               ; preds = %.outer, %47
  %indvars.iv76 = phi i64 [ %indvars.iv.next77, %47 ], [ %indvars.iv76.ph, %.outer ]
  %44 = getelementptr inbounds nuw double, ptr %39, i64 %indvars.iv76
  %45 = load double, ptr %44, align 8, !tbaa !130
  %46 = fcmp oeq double %45, 0.000000e+00
  br i1 %46, label %.thread, label %47

47:                                               ; preds = %43
  %indvars.iv.next77 = add nuw nsw i64 %indvars.iv76, 1
  %48 = icmp slt i64 %indvars.iv.next77, %42
  br i1 %48, label %43, label %._crit_edge72

.thread:                                          ; preds = %43
  %49 = load ptr, ptr %40, align 8, !tbaa !110
  %50 = getelementptr inbounds nuw i32, ptr %49, i64 %indvars.iv76
  store i32 0, ptr %50, align 4, !tbaa !111
  %.pre = load i32, ptr %2, align 8, !tbaa !87
  %indvars.iv.next7785 = add nuw nsw i64 %indvars.iv76, 1
  %51 = sext i32 %.pre to i64
  %52 = icmp slt i64 %indvars.iv.next7785, %51
  br i1 %52, label %.outer, label %._crit_edge72.thread87

._crit_edge72:                                    ; preds = %47
  br i1 %41, label %.loopexit, label %._crit_edge72.thread87

._crit_edge72.thread87:                           ; preds = %.thread, %._crit_edge72
  %53 = load double, ptr %24, align 8, !tbaa !154
  %54 = load double, ptr %16, align 8, !tbaa !118
  %55 = tail call double @llvm.fabs.f64(double %54)
  %56 = fdiv double %53, %55
  %57 = fcmp ogt double %56, 1.000000e-01
  %58 = select i1 %57, double %56, double 1.000000e-01
  %59 = fmul double %54, %58
  %60 = load double, ptr %14, align 8, !tbaa !129
  %61 = fadd double %60, %59
  %62 = load ptr, ptr %27, align 8, !tbaa !78
  %63 = load ptr, ptr %29, align 8, !tbaa !78
  %64 = getelementptr inbounds nuw i8, ptr %0, i64 392
  %65 = load ptr, ptr %64, align 8, !tbaa !112
  tail call void @N_VLinearSum(double noundef 1.000000e+00, ptr noundef %62, double noundef %59, ptr noundef %63, ptr noundef %65) #13
  %66 = load ptr, ptr %25, align 8, !tbaa !86
  %67 = load ptr, ptr %64, align 8, !tbaa !112
  %68 = load ptr, ptr %29, align 8, !tbaa !78
  %69 = getelementptr inbounds nuw i8, ptr %0, i64 1136
  %70 = load ptr, ptr %69, align 8, !tbaa !106
  %71 = load ptr, ptr %33, align 8, !tbaa !152
  %72 = tail call i32 %66(double noundef %61, ptr noundef %67, ptr noundef %68, ptr noundef %70, ptr noundef %71) #13
  %73 = load i64, ptr %36, align 8, !tbaa !97
  %74 = add nsw i64 %73, 1
  store i64 %74, ptr %36, align 8, !tbaa !97
  %.not65 = icmp eq i32 %72, 0
  br i1 %.not65, label %.preheader, label %.loopexit

.preheader:                                       ; preds = %._crit_edge72.thread87
  %75 = load i32, ptr %2, align 8, !tbaa !87
  %76 = icmp sgt i32 %75, 0
  br i1 %76, label %.lr.ph74, label %.loopexit

.lr.ph74:                                         ; preds = %.preheader
  %77 = getelementptr inbounds nuw i8, ptr %0, i64 1184
  %78 = load ptr, ptr %77, align 8, !tbaa !110
  br label %79

79:                                               ; preds = %.lr.ph74, %91
  %80 = phi i32 [ %75, %.lr.ph74 ], [ %92, %91 ]
  %indvars.iv79 = phi i64 [ 0, %.lr.ph74 ], [ %indvars.iv.next80, %91 ]
  %81 = getelementptr inbounds nuw i32, ptr %78, i64 %indvars.iv79
  %82 = load i32, ptr %81, align 4, !tbaa !111
  %.not66 = icmp eq i32 %82, 0
  br i1 %.not66, label %83, label %91

83:                                               ; preds = %79
  %84 = load ptr, ptr %69, align 8, !tbaa !106
  %85 = getelementptr inbounds nuw double, ptr %84, i64 %indvars.iv79
  %86 = load double, ptr %85, align 8, !tbaa !130
  %87 = fcmp une double %86, 0.000000e+00
  br i1 %87, label %88, label %91

88:                                               ; preds = %83
  store i32 1, ptr %81, align 4, !tbaa !111
  %89 = load ptr, ptr %31, align 8, !tbaa !105
  %90 = getelementptr inbounds nuw double, ptr %89, i64 %indvars.iv79
  store double %86, ptr %90, align 8, !tbaa !130
  %.pre82 = load i32, ptr %2, align 8, !tbaa !87
  br label %91

91:                                               ; preds = %79, %83, %88
  %92 = phi i32 [ %80, %79 ], [ %80, %83 ], [ %.pre82, %88 ]
  %indvars.iv.next80 = add nuw nsw i64 %indvars.iv79, 1
  %93 = sext i32 %92 to i64
  %94 = icmp slt i64 %indvars.iv.next80, %93
  br i1 %94, label %79, label %.loopexit

.loopexit:                                        ; preds = %91, %.preheader67, %.preheader, %._crit_edge72.thread87, %._crit_edge72, %._crit_edge
  %.060 = phi i32 [ -10, %._crit_edge ], [ 0, %._crit_edge72 ], [ -10, %._crit_edge72.thread87 ], [ 0, %.preheader ], [ 0, %.preheader67 ], [ 0, %91 ]
  ret i32 %.060
}